target datalayout = "e-m:e-p270:32:32-p271:32:32-p272:64:64-i64:64-i128:128-f80:128-n8:16:32:64-S128"
target triple = "x86_64-pc-linux-gnu"

%struct.sendmsg_args_struct = type { i32, i32, ptr }

; Function Attrs: nounwind sspstrong uwtable
define internal ptr @nogvl_sendmsg_func(ptr noundef %0) #0 {
  %2 = alloca ptr, align 8
  %3 = alloca ptr, align 8
  store ptr %0, ptr %2, align 8, !tbaa !79
  call void @llvm.lifetime.start.p0(i64 8, ptr %3) #21
  %4 = load ptr, ptr %2, align 8, !tbaa !79
  store ptr %4, ptr %3, align 8, !tbaa !94
  %5 = load ptr, ptr %3, align 8, !tbaa !94
  %6 = getelementptr inbounds nuw %struct.sendmsg_args_struct, ptr %5, i32 0, i32 0
  %7 = load i32, ptr %6, align 8, !tbaa !86
  %8 = load ptr, ptr %3, align 8, !tbaa !94
  %9 = getelementptr inbounds nuw %struct.sendmsg_args_struct, ptr %8, i32 0, i32 2
  %10 = load ptr, ptr %9, align 8, !tbaa !88
  %11 = load ptr, ptr %3, align 8, !tbaa !94
  %12 = getelementptr inbounds nuw %struct.sendmsg_args_struct, ptr %11, i32 0, i32 1
  %13 = load i32, ptr %12, align 4, !tbaa !89
  %14 = call i64 @sendmsg(i32 noundef %7, ptr noundef %10, i32 noundef %13)
  %15 = inttoptr i64 %14 to ptr
  call void @llvm.lifetime.end.p0(i64 8, ptr %3) #21
  ret ptr %15
}