; Function Attrs: nounwind sspstrong uwtable
define internal ptr @nogvl_sendmsg_func(ptr noundef readonly captures(none) %0) #0 {
  %2 = load i32, ptr %0, align 8, !tbaa !60
  %3 = getelementptr inbounds nuw i8, ptr %0, i64 8
  %4 = load ptr, ptr %3, align 8, !tbaa !63
  %5 = getelementptr inbounds nuw i8, ptr %0, i64 4
  %6 = load i32, ptr %5, align 4, !tbaa !64
  %7 = tail call i64 @sendmsg(i32 noundef %2, ptr noundef %4, i32 noundef %6) #10
  %8 = inttoptr i64 %7 to ptr
  ret ptr %8
}